; Function Attrs: mustprogress uwtable
define void @_ZN2cv5flann11IndexParamsC2Ev(ptr noundef nonnull writeonly align 8 captures(none) dereferenceable(8) initializes((0, 8)) %0) unnamed_addr #7 align 2 personality ptr @__gxx_personality_v0 {
  %2 = tail call noalias noundef nonnull dereferenceable(48) ptr @_Znwm(i64 noundef 48) #35
  %3 = getelementptr inbounds nuw i8, ptr %2, i64 8
  %4 = getelementptr inbounds nuw i8, ptr %2, i64 24
  tail call void @llvm.memset.p0.i64(ptr noundef nonnull align 16 dereferenceable(32) %2, i8 0, i64 32, i1 false)
  store ptr %3, ptr %4, align 8, !tbaa !14
  %5 = getelementptr inbounds nuw i8, ptr %2, i64 32
  store ptr %3, ptr %5, align 8, !tbaa !15
  %6 = getelementptr inbounds nuw i8, ptr %2, i64 40
  store i64 0, ptr %6, align 8, !tbaa !16
  store ptr %2, ptr %0, align 8, !tbaa !3
  ret void
}